target datalayout = "e-m:e-p270:32:32-p271:32:32-p272:64:64-i64:64-i128:128-f80:128-n8:16:32:64-S128"
target triple = "x86_64-pc-linux-gnu"

%struct.CVodeMemRec = type { ptr, double, ptr, ptr, i32, i32, double, double, ptr, i32, i32, ptr, ptr, i32, [13 x ptr], ptr, ptr, ptr, ptr, ptr, ptr, ptr, ptr, ptr, i32, i32, double, i32, i32, i32, i32, i32, double, double, double, double, double, double, double, double, [14 x double], [6 x double], [13 x double], double, double, double, double, double, double, double, i32, double, i32, i64, i32, i32, i32, double, double, double, double, double, double, double, double, double, double, double, double, i64, i32, i64, i64, i64, i64, i64, i64, i64, i32, double, double, double, i64, i64, i64, i64, ptr, i32, ptr, i32, ptr, ptr, ptr, ptr, ptr, i64, double, i32, i64, double, double, double, i32, double, i32, i32, i32, i32, i32, ptr, i64, i32, [6 x [4 x double]], i32, i64, ptr, i32, ptr, ptr, double, double, double, ptr, ptr, ptr, double, double, i32, i32, i64, ptr, i32, ptr, i32, i32, [13 x double], [13 x double], [13 x ptr], i32 }

; Function Attrs: nounwind uwtable
define void @cvRescale(ptr noundef %0) #0 {
  %2 = alloca ptr, align 8
  %3 = alloca i32, align 4
  store ptr %0, ptr %2, align 8, !tbaa !10
  call void @llvm.lifetime.start.p0(i64 4, ptr %3) #10
  %4 = load ptr, ptr %2, align 8, !tbaa !10
  %5 = getelementptr inbounds nuw %struct.CVodeMemRec, ptr %4, i32 0, i32 36
  %6 = load double, ptr %5, align 8, !tbaa !162
  %7 = load ptr, ptr %2, align 8, !tbaa !10
  %8 = getelementptr inbounds nuw %struct.CVodeMemRec, ptr %7, i32 0, i32 136
  %9 = getelementptr inbounds [13 x double], ptr %8, i64 0, i64 0
  store double %6, ptr %9, align 8, !tbaa !90
  store i32 1, ptr %3, align 4, !tbaa !3
  br label %10

10:                                               ; preds = %33, %1
  %11 = load i32, ptr %3, align 4, !tbaa !3
  %12 = load ptr, ptr %2, align 8, !tbaa !10
  %13 = getelementptr inbounds nuw %struct.CVodeMemRec, ptr %12, i32 0, i32 27
  %14 = load i32, ptr %13, align 8, !tbaa !101
  %15 = icmp sle i32 %11, %14
  br i1 %15, label %16, label %36

16:                                               ; preds = %10
  %17 = load ptr, ptr %2, align 8, !tbaa !10
  %18 = getelementptr inbounds nuw %struct.CVodeMemRec, ptr %17, i32 0, i32 36
  %19 = load double, ptr %18, align 8, !tbaa !162
  %20 = load ptr, ptr %2, align 8, !tbaa !10
  %21 = getelementptr inbounds nuw %struct.CVodeMemRec, ptr %20, i32 0, i32 136
  %22 = load i32, ptr %3, align 4, !tbaa !3
  %23 = sub nsw i32 %22, 1
  %24 = sext i32 %23 to i64
  %25 = getelementptr inbounds [13 x double], ptr %21, i64 0, i64 %24
  %26 = load double, ptr %25, align 8, !tbaa !90
  %27 = fmul double %19, %26
  %28 = load ptr, ptr %2, align 8, !tbaa !10
  %29 = getelementptr inbounds nuw %struct.CVodeMemRec, ptr %28, i32 0, i32 136
  %30 = load i32, ptr %3, align 4, !tbaa !3
  %31 = sext i32 %30 to i64
  %32 = getelementptr inbounds [13 x double], ptr %29, i64 0, i64 %31
  store double %27, ptr %32, align 8, !tbaa !90
  br label %33

33:                                               ; preds = %16
  %34 = load i32, ptr %3, align 4, !tbaa !3
  %35 = add nsw i32 %34, 1
  store i32 %35, ptr %3, align 4, !tbaa !3
  br label %10

36:                                               ; preds = %10
  %37 = load ptr, ptr %2, align 8, !tbaa !10
  %38 = getelementptr inbounds nuw %struct.CVodeMemRec, ptr %37, i32 0, i32 27
  %39 = load i32, ptr %38, align 8, !tbaa !101
  %40 = load ptr, ptr %2, align 8, !tbaa !10
  %41 = getelementptr inbounds nuw %struct.CVodeMemRec, ptr %40, i32 0, i32 136
  %42 = getelementptr inbounds [13 x double], ptr %41, i64 0, i64 0
  %43 = load ptr, ptr %2, align 8, !tbaa !10
  %44 = getelementptr inbounds nuw %struct.CVodeMemRec, ptr %43, i32 0, i32 14
  %45 = getelementptr inbounds [13 x ptr], ptr %44, i64 0, i64 0
  %46 = getelementptr inbounds ptr, ptr %45, i64 1
  %47 = load ptr, ptr %2, align 8, !tbaa !10
  %48 = getelementptr inbounds nuw %struct.CVodeMemRec, ptr %47, i32 0, i32 14
  %49 = getelementptr inbounds [13 x ptr], ptr %48, i64 0, i64 0
  %50 = getelementptr inbounds ptr, ptr %49, i64 1
  %51 = call i32 @N_VScaleVectorArray(i32 noundef %39, ptr noundef %42, ptr noundef %46, ptr noundef %50)
  %52 = load ptr, ptr %2, align 8, !tbaa !10
  %53 = getelementptr inbounds nuw %struct.CVodeMemRec, ptr %52, i32 0, i32 37
  %54 = load double, ptr %53, align 8, !tbaa !159
  %55 = load ptr, ptr %2, align 8, !tbaa !10
  %56 = getelementptr inbounds nuw %struct.CVodeMemRec, ptr %55, i32 0, i32 36
  %57 = load double, ptr %56, align 8, !tbaa !162
  %58 = fmul double %54, %57
  %59 = load ptr, ptr %2, align 8, !tbaa !10
  %60 = getelementptr inbounds nuw %struct.CVodeMemRec, ptr %59, i32 0, i32 33
  store double %58, ptr %60, align 8, !tbaa !158
  %61 = load ptr, ptr %2, align 8, !tbaa !10
  %62 = getelementptr inbounds nuw %struct.CVodeMemRec, ptr %61, i32 0, i32 33
  %63 = load double, ptr %62, align 8, !tbaa !158
  %64 = load ptr, ptr %2, align 8, !tbaa !10
  %65 = getelementptr inbounds nuw %struct.CVodeMemRec, ptr %64, i32 0, i32 35
  store double %63, ptr %65, align 8, !tbaa !126
  %66 = load ptr, ptr %2, align 8, !tbaa !10
  %67 = getelementptr inbounds nuw %struct.CVodeMemRec, ptr %66, i32 0, i32 33
  %68 = load double, ptr %67, align 8, !tbaa !158
  %69 = load ptr, ptr %2, align 8, !tbaa !10
  %70 = getelementptr inbounds nuw %struct.CVodeMemRec, ptr %69, i32 0, i32 37
  store double %68, ptr %70, align 8, !tbaa !159
  %71 = load ptr, ptr %2, align 8, !tbaa !10
  %72 = getelementptr inbounds nuw %struct.CVodeMemRec, ptr %71, i32 0, i32 113
  store i32 0, ptr %72, align 8, !tbaa !122
  call void @llvm.lifetime.end.p0(i64 4, ptr %3) #10
  ret void
}