; Function Attrs: nounwind uwtable
define void @cvRescale(ptr noundef initializes((1624, 1632)) %0) local_unnamed_addr #0 {
  %2 = getelementptr inbounds nuw i8, ptr %0, i64 344
  %3 = load double, ptr %2, align 8, !tbaa !141
  %4 = getelementptr inbounds nuw i8, ptr %0, i64 1624
  store double %3, ptr %4, align 8, !tbaa !96
  %5 = getelementptr inbounds nuw i8, ptr %0, i64 288
  %6 = load i32, ptr %5, align 8, !tbaa !83
  %.not22 = icmp slt i32 %6, 1
  br i1 %.not22, label %._crit_edge, label %.lr.ph.preheader

.lr.ph.preheader:                                 ; preds = %1
  %7 = add nuw i32 %6, 1
  %wide.trip.count = zext i32 %7 to i64
  br label %.lr.ph

.lr.ph:                                           ; preds = %.lr.ph.preheader, %.lr.ph
  %8 = phi double [ %3, %.lr.ph.preheader ], [ %9, %.lr.ph ]
  %indvars.iv = phi i64 [ 1, %.lr.ph.preheader ], [ %indvars.iv.next, %.lr.ph ]
  %9 = fmul double %3, %8
  %10 = getelementptr inbounds nuw [13 x double], ptr %4, i64 0, i64 %indvars.iv
  store double %9, ptr %10, align 8, !tbaa !96
  %indvars.iv.next = add nuw nsw i64 %indvars.iv, 1
  %exitcond.not = icmp eq i64 %indvars.iv.next, %wide.trip.count
  br i1 %exitcond.not, label %._crit_edge, label %.lr.ph

._crit_edge:                                      ; preds = %.lr.ph, %1
  %11 = getelementptr inbounds nuw i8, ptr %0, i64 104
  %12 = tail call i32 @N_VScaleVectorArray(i32 noundef %6, ptr noundef nonnull %4, ptr noundef nonnull %11, ptr noundef nonnull %11) #13
  %13 = getelementptr inbounds nuw i8, ptr %0, i64 352
  %14 = load double, ptr %13, align 8, !tbaa !136
  %15 = load double, ptr %2, align 8, !tbaa !141
  %16 = fmul double %14, %15
  %17 = getelementptr inbounds nuw i8, ptr %0, i64 320
  store double %16, ptr %17, align 8, !tbaa !133
  %18 = getelementptr inbounds nuw i8, ptr %0, i64 336
  store double %16, ptr %18, align 8, !tbaa !93
  store double %16, ptr %13, align 8, !tbaa !136
  %19 = getelementptr inbounds nuw i8, ptr %0, i64 1360
  store i32 0, ptr %19, align 8, !tbaa !90
  ret void
}